target datalayout = "e-m:e-p270:32:32-p271:32:32-p272:64:64-i64:64-i128:128-f80:128-n8:16:32:64-S128"
target triple = "x86_64-pc-linux-gnu"

%struct.H5CX_node_t = type { %struct.H5CX_t, ptr }
%struct.H5CX_t = type { i64, ptr, i64, ptr, i64, ptr, i64, ptr, i64, ptr, i64, ptr, i64, i32, i64, i8, ptr, i8, ptr, i8, i32, i8, [3 x double], i8, i64, i8, i32, i8, %struct.H5Z_cb_t, i8, ptr, i8, %struct.H5T_vlen_alloc_info_t, i8, %struct.H5T_conv_cb_t, i8, i32, i8, i8, i8, i32, i8, i8, i32, i8, i8, i32, i8, i32, i8, i64, i8, i8, i8, i8, i8, ptr, i8, ptr, i8, i32, i8, i32, i8, %struct.H5VL_connector_prop_t, i8, ptr, i8 }
%struct.H5Z_cb_t = type { ptr, ptr }
%struct.H5T_vlen_alloc_info_t = type { ptr, ptr, ptr, ptr }
%struct.H5T_conv_cb_t = type { ptr, ptr }
%struct.H5VL_connector_prop_t = type { ptr, ptr }
%struct.H5VL_optional_args_t = type { i32, ptr }
%union.H5VL_native_file_optional_args_t = type { %struct.H5VL_native_file_get_page_buffering_stats_t }
%struct.H5VL_native_file_get_page_buffering_stats_t = type { ptr, ptr, ptr, ptr, ptr }
%struct.H5VL_native_file_get_mdc_image_info_t = type { ptr, ptr }

@H5_libinit_g = external global i8, align 1
@H5_libterm_g = external global i8, align 1
@.str = private unnamed_addr constant [97 x i8] c"generated/home/dtcxzyw/WorkSpace/Projects/compilers/llvm-opt-benchmark/bench/hdf5/hdf5/src/H5F.c\00", align 1
@H5E_FUNC_g = external global i64, align 8
@H5E_CANTINIT_g = external global i64, align 8
@.str.1 = private unnamed_addr constant [30 x i8] c"library initialization failed\00", align 1
@H5F_init_g = external global i8, align 1
@.str.2 = private unnamed_addr constant [32 x i8] c"interface initialization failed\00", align 1
@H5E_CANTSET_g = external global i64, align 8
@.str.3 = private unnamed_addr constant [22 x i8] c"can't set API context\00", align 1
@H5E_ARGS_g = external global i64, align 8
@H5E_BADTYPE_g = external global i64, align 8
@H5P_LST_DATASET_XFER_ID_g = external global i64, align 8
@H5E_FILE_g = external global i64, align 8
@H5E_CANTGET_g = external global i64, align 8
@.str.101 = private unnamed_addr constant [34 x i8] c"hid_t identifier is not a file ID\00", align 1
@__func__.H5Fget_mdc_image_info = private unnamed_addr constant [22 x i8] c"H5Fget_mdc_image_info\00", align 1
@.str.112 = private unnamed_addr constant [32 x i8] c"can't retrieve cache image info\00", align 1

; Function Attrs: nounwind uwtable
define i32 @H5Fget_mdc_image_info(i64 noundef %0, ptr noundef %1, ptr noundef %2) #0 {
  %4 = alloca i64, align 8
  %5 = alloca ptr, align 8
  %6 = alloca ptr, align 8
  %7 = alloca ptr, align 8
  %8 = alloca %struct.H5VL_optional_args_t, align 8
  %9 = alloca %union.H5VL_native_file_optional_args_t, align 8
  %10 = alloca i32, align 4
  %11 = alloca %struct.H5CX_node_t, align 8
  %12 = alloca i8, align 1
  %13 = alloca i8, align 1
  store i64 %0, ptr %4, align 8, !tbaa !3
  store ptr %1, ptr %5, align 8, !tbaa !23
  store ptr %2, ptr %6, align 8, !tbaa !23
  call void @llvm.lifetime.start.p0(i64 8, ptr %7) #5
  call void @llvm.lifetime.start.p0(i64 16, ptr %8) #5
  call void @llvm.lifetime.start.p0(i64 40, ptr %9) #5
  call void @llvm.lifetime.start.p0(i64 4, ptr %10) #5
  store i32 0, ptr %10, align 4, !tbaa !18
  call void @llvm.lifetime.start.p0(i64 480, ptr %11) #5
  call void @llvm.memset.p0.i64(ptr align 8 %11, i8 0, i64 480, i1 false)
  call void @llvm.lifetime.start.p0(i64 1, ptr %12) #5
  store i8 0, ptr %12, align 1, !tbaa !7
  call void @llvm.lifetime.start.p0(i64 1, ptr %13) #5
  store i8 0, ptr %13, align 1, !tbaa !7
  br label %14

14:                                               ; preds = %3
  %15 = load i8, ptr @H5_libinit_g, align 1, !tbaa !7, !range !9, !noundef !10
  %16 = trunc i8 %15 to i1
  br i1 %16, label %21, label %17

17:                                               ; preds = %14
  %18 = load i8, ptr @H5_libterm_g, align 1, !tbaa !7, !range !9, !noundef !10
  %19 = trunc i8 %18 to i1
  %20 = xor i1 %19, true
  br label %21

21:                                               ; preds = %17, %14
  %22 = phi i1 [ false, %14 ], [ %20, %17 ]
  %23 = xor i1 %22, true
  %24 = xor i1 %23, true
  %25 = zext i1 %24 to i32
  %26 = sext i32 %25 to i64
  %27 = call i64 @llvm.expect.i64(i64 %26, i64 0)
  %28 = icmp ne i64 %27, 0
  br i1 %28, label %29, label %58

29:                                               ; preds = %21
  %30 = call i32 @H5_init_library()
  %31 = icmp slt i32 %30, 0
  %32 = xor i1 %31, true
  %33 = xor i1 %32, true
  %34 = zext i1 %33 to i32
  %35 = sext i32 %34 to i64
  %36 = call i64 @llvm.expect.i64(i64 %35, i64 0)
  %37 = icmp ne i64 %36, 0
  br i1 %37, label %38, label %57

38:                                               ; preds = %29
  br label %39

39:                                               ; preds = %38
  br label %40

40:                                               ; preds = %39
  br label %41

41:                                               ; preds = %40
  %42 = load i64, ptr @H5E_FUNC_g, align 8, !tbaa !3
  %43 = load i64, ptr @H5E_CANTINIT_g, align 8, !tbaa !3
  %44 = call i32 (ptr, ptr, i32, i64, i64, ptr, ...) @H5E_printf_stack(ptr noundef @.str, ptr noundef @__func__.H5Fget_mdc_image_info, i32 noundef 2562, i64 noundef %42, i64 noundef %43, ptr noundef @.str.1)
  br label %45

45:                                               ; preds = %41
  br label %46

46:                                               ; preds = %45
  store i8 1, ptr %13, align 1, !tbaa !7
  %47 = load i8, ptr %13, align 1, !tbaa !7, !range !9, !noundef !10
  %48 = trunc i8 %47 to i1
  %49 = zext i1 %48 to i8
  store i8 %49, ptr %13, align 1, !tbaa !7
  br label %50

50:                                               ; preds = %46
  br label %51

51:                                               ; preds = %50
  br label %52

52:                                               ; preds = %51
  store i32 -1, ptr %10, align 4, !tbaa !18
  br label %185

53:                                               ; No predecessors!
  br label %54

54:                                               ; preds = %53
  br label %55

55:                                               ; preds = %54
  br label %56

56:                                               ; preds = %55
  br label %57

57:                                               ; preds = %56, %29
  br label %58

58:                                               ; preds = %57, %21
  %59 = load i8, ptr @H5F_init_g, align 1, !tbaa !7, !range !9, !noundef !10
  %60 = trunc i8 %59 to i1
  br i1 %60, label %65, label %61

61:                                               ; preds = %58
  %62 = load i8, ptr @H5_libterm_g, align 1, !tbaa !7, !range !9, !noundef !10
  %63 = trunc i8 %62 to i1
  %64 = xor i1 %63, true
  br label %65

65:                                               ; preds = %61, %58
  %66 = phi i1 [ false, %58 ], [ %64, %61 ]
  %67 = xor i1 %66, true
  %68 = xor i1 %67, true
  %69 = zext i1 %68 to i32
  %70 = sext i32 %69 to i64
  %71 = call i64 @llvm.expect.i64(i64 %70, i64 0)
  %72 = icmp ne i64 %71, 0
  br i1 %72, label %73, label %96

73:                                               ; preds = %65
  store i8 1, ptr @H5F_init_g, align 1, !tbaa !7
  %74 = call i32 @H5F__init_package()
  %75 = icmp slt i32 %74, 0
  br i1 %75, label %76, label %95

76:                                               ; preds = %73
  store i8 0, ptr @H5F_init_g, align 1, !tbaa !7
  br label %77

77:                                               ; preds = %76
  br label %78

78:                                               ; preds = %77
  br label %79

79:                                               ; preds = %78
  %80 = load i64, ptr @H5E_FUNC_g, align 8, !tbaa !3
  %81 = load i64, ptr @H5E_CANTINIT_g, align 8, !tbaa !3
  %82 = call i32 (ptr, ptr, i32, i64, i64, ptr, ...) @H5E_printf_stack(ptr noundef @.str, ptr noundef @__func__.H5Fget_mdc_image_info, i32 noundef 2562, i64 noundef %80, i64 noundef %81, ptr noundef @.str.2)
  br label %83

83:                                               ; preds = %79
  br label %84

84:                                               ; preds = %83
  store i8 1, ptr %13, align 1, !tbaa !7
  %85 = load i8, ptr %13, align 1, !tbaa !7, !range !9, !noundef !10
  %86 = trunc i8 %85 to i1
  %87 = zext i1 %86 to i8
  store i8 %87, ptr %13, align 1, !tbaa !7
  br label %88

88:                                               ; preds = %84
  br label %89

89:                                               ; preds = %88
  br label %90

90:                                               ; preds = %89
  store i32 -1, ptr %10, align 4, !tbaa !18
  br label %185

91:                                               ; No predecessors!
  br label %92

92:                                               ; preds = %91
  br label %93

93:                                               ; preds = %92
  br label %94

94:                                               ; preds = %93
  br label %95

95:                                               ; preds = %94, %73
  br label %96

96:                                               ; preds = %95, %65
  br label %97

97:                                               ; preds = %96
  br label %98

98:                                               ; preds = %97
  br label %99

99:                                               ; preds = %98
  %100 = call i32 @H5CX_push(ptr noundef %11)
  %101 = icmp slt i32 %100, 0
  %102 = xor i1 %101, true
  %103 = xor i1 %102, true
  %104 = zext i1 %103 to i32
  %105 = sext i32 %104 to i64
  %106 = call i64 @llvm.expect.i64(i64 %105, i64 0)
  %107 = icmp ne i64 %106, 0
  br i1 %107, label %108, label %127

108:                                              ; preds = %99
  br label %109

109:                                              ; preds = %108
  br label %110

110:                                              ; preds = %109
  br label %111

111:                                              ; preds = %110
  %112 = load i64, ptr @H5E_FUNC_g, align 8, !tbaa !3
  %113 = load i64, ptr @H5E_CANTSET_g, align 8, !tbaa !3
  %114 = call i32 (ptr, ptr, i32, i64, i64, ptr, ...) @H5E_printf_stack(ptr noundef @.str, ptr noundef @__func__.H5Fget_mdc_image_info, i32 noundef 2562, i64 noundef %112, i64 noundef %113, ptr noundef @.str.3)
  br label %115

115:                                              ; preds = %111
  br label %116

116:                                              ; preds = %115
  store i8 1, ptr %13, align 1, !tbaa !7
  %117 = load i8, ptr %13, align 1, !tbaa !7, !range !9, !noundef !10
  %118 = trunc i8 %117 to i1
  %119 = zext i1 %118 to i8
  store i8 %119, ptr %13, align 1, !tbaa !7
  br label %120

120:                                              ; preds = %116
  br label %121

121:                                              ; preds = %120
  br label %122

122:                                              ; preds = %121
  store i32 -1, ptr %10, align 4, !tbaa !18
  br label %185

123:                                              ; No predecessors!
  br label %124

124:                                              ; preds = %123
  br label %125

125:                                              ; preds = %124
  br label %126

126:                                              ; preds = %125
  br label %128

127:                                              ; preds = %99
  store i8 1, ptr %12, align 1, !tbaa !7
  br label %128

128:                                              ; preds = %127, %126
  br label %129

129:                                              ; preds = %128
  br label %130

130:                                              ; preds = %129
  %131 = call i32 @H5E_clear_stack()
  %132 = load i64, ptr %4, align 8, !tbaa !3
  %133 = call ptr @H5VL_vol_object_verify(i64 noundef %132, i32 noundef 1)
  store ptr %133, ptr %7, align 8, !tbaa !11
  %134 = icmp eq ptr null, %133
  br i1 %134, label %135, label %154

135:                                              ; preds = %130
  br label %136

136:                                              ; preds = %135
  br label %137

137:                                              ; preds = %136
  br label %138

138:                                              ; preds = %137
  %139 = load i64, ptr @H5E_ARGS_g, align 8, !tbaa !3
  %140 = load i64, ptr @H5E_BADTYPE_g, align 8, !tbaa !3
  %141 = call i32 (ptr, ptr, i32, i64, i64, ptr, ...) @H5E_printf_stack(ptr noundef @.str, ptr noundef @__func__.H5Fget_mdc_image_info, i32 noundef 2566, i64 noundef %139, i64 noundef %140, ptr noundef @.str.101)
  br label %142

142:                                              ; preds = %138
  br label %143

143:                                              ; preds = %142
  store i8 1, ptr %13, align 1, !tbaa !7
  %144 = load i8, ptr %13, align 1, !tbaa !7, !range !9, !noundef !10
  %145 = trunc i8 %144 to i1
  %146 = zext i1 %145 to i8
  store i8 %146, ptr %13, align 1, !tbaa !7
  br label %147

147:                                              ; preds = %143
  br label %148

148:                                              ; preds = %147
  br label %149

149:                                              ; preds = %148
  store i32 -1, ptr %10, align 4, !tbaa !18
  br label %185

150:                                              ; No predecessors!
  br label %151

151:                                              ; preds = %150
  br label %152

152:                                              ; preds = %151
  br label %153

153:                                              ; preds = %152
  br label %154

154:                                              ; preds = %153, %130
  %155 = load ptr, ptr %5, align 8, !tbaa !23
  %156 = getelementptr inbounds nuw %struct.H5VL_native_file_get_mdc_image_info_t, ptr %9, i32 0, i32 0
  store ptr %155, ptr %156, align 8, !tbaa !17
  %157 = load ptr, ptr %6, align 8, !tbaa !23
  %158 = getelementptr inbounds nuw %struct.H5VL_native_file_get_mdc_image_info_t, ptr %9, i32 0, i32 1
  store ptr %157, ptr %158, align 8, !tbaa !17
  %159 = getelementptr inbounds nuw %struct.H5VL_optional_args_t, ptr %8, i32 0, i32 0
  store i32 20, ptr %159, align 8, !tbaa !29
  %160 = getelementptr inbounds nuw %struct.H5VL_optional_args_t, ptr %8, i32 0, i32 1
  store ptr %9, ptr %160, align 8, !tbaa !31
  %161 = load ptr, ptr %7, align 8, !tbaa !11
  %162 = load i64, ptr @H5P_LST_DATASET_XFER_ID_g, align 8, !tbaa !3
  %163 = call i32 @H5VL_file_optional(ptr noundef %161, ptr noundef %8, i64 noundef %162, ptr noundef null)
  %164 = icmp slt i32 %163, 0
  br i1 %164, label %165, label %184

165:                                              ; preds = %154
  br label %166

166:                                              ; preds = %165
  br label %167

167:                                              ; preds = %166
  br label %168

168:                                              ; preds = %167
  %169 = load i64, ptr @H5E_FILE_g, align 8, !tbaa !3
  %170 = load i64, ptr @H5E_CANTGET_g, align 8, !tbaa !3
  %171 = call i32 (ptr, ptr, i32, i64, i64, ptr, ...) @H5E_printf_stack(ptr noundef @.str, ptr noundef @__func__.H5Fget_mdc_image_info, i32 noundef 2576, i64 noundef %169, i64 noundef %170, ptr noundef @.str.112)
  br label %172

172:                                              ; preds = %168
  br label %173

173:                                              ; preds = %172
  store i8 1, ptr %13, align 1, !tbaa !7
  %174 = load i8, ptr %13, align 1, !tbaa !7, !range !9, !noundef !10
  %175 = trunc i8 %174 to i1
  %176 = zext i1 %175 to i8
  store i8 %176, ptr %13, align 1, !tbaa !7
  br label %177

177:                                              ; preds = %173
  br label %178

178:                                              ; preds = %177
  br label %179

179:                                              ; preds = %178
  store i32 -1, ptr %10, align 4, !tbaa !18
  br label %185

180:                                              ; No predecessors!
  br label %181

181:                                              ; preds = %180
  br label %182

182:                                              ; preds = %181
  br label %183

183:                                              ; preds = %182
  br label %184

184:                                              ; preds = %183, %154
  br label %185

185:                                              ; preds = %184, %179, %149, %122, %90, %52
  %186 = load i8, ptr %12, align 1, !tbaa !7, !range !9, !noundef !10
  %187 = trunc i8 %186 to i1
  %188 = xor i1 %187, true
  %189 = xor i1 %188, true
  %190 = zext i1 %189 to i32
  %191 = sext i32 %190 to i64
  %192 = call i64 @llvm.expect.i64(i64 %191, i64 1)
  %193 = icmp ne i64 %192, 0
  br i1 %193, label %194, label %196

194:                                              ; preds = %185
  %195 = call i32 @H5CX_pop(i1 noundef zeroext true)
  store i8 0, ptr %12, align 1, !tbaa !7
  br label %196

196:                                              ; preds = %194, %185
  %197 = load i8, ptr %13, align 1, !tbaa !7, !range !9, !noundef !10
  %198 = trunc i8 %197 to i1
  %199 = xor i1 %198, true
  %200 = xor i1 %199, true
  %201 = zext i1 %200 to i32
  %202 = sext i32 %201 to i64
  %203 = call i64 @llvm.expect.i64(i64 %202, i64 0)
  %204 = icmp ne i64 %203, 0
  br i1 %204, label %205, label %207

205:                                              ; preds = %196
  %206 = call i32 @H5E_dump_api_stack()
  br label %207

207:                                              ; preds = %205, %196
  %208 = load i32, ptr %10, align 4, !tbaa !18
  call void @llvm.lifetime.end.p0(i64 1, ptr %13) #5
  call void @llvm.lifetime.end.p0(i64 1, ptr %12) #5
  call void @llvm.lifetime.end.p0(i64 480, ptr %11) #5
  call void @llvm.lifetime.end.p0(i64 4, ptr %10) #5
  call void @llvm.lifetime.end.p0(i64 40, ptr %9) #5
  call void @llvm.lifetime.end.p0(i64 16, ptr %8) #5
  call void @llvm.lifetime.end.p0(i64 8, ptr %7) #5
  ret i32 %208
}