; Function Attrs: nounwind uwtable
define range(i32 -1, 1) i32 @H5Fget_mdc_image_info(i64 noundef %0, ptr noundef %1, ptr noundef %2) local_unnamed_addr #0 {
  %4 = alloca %struct.H5VL_optional_args_t, align 8
  %5 = alloca %union.H5VL_native_file_optional_args_t, align 8
  %6 = alloca %struct.H5CX_node_t, align 8
  call void @llvm.lifetime.start.p0(i64 16, ptr nonnull %4) #6
  call void @llvm.lifetime.start.p0(i64 40, ptr nonnull %5) #6
  call void @llvm.lifetime.start.p0(i64 480, ptr nonnull %6) #6
  call void @llvm.memset.p0.i64(ptr noundef nonnull align 8 dereferenceable(480) %6, i8 0, i64 480, i1 false)
  %7 = load i8, ptr @H5_libinit_g, align 1, !tbaa !3, !range !7, !noundef !8
  %8 = trunc nuw i8 %7 to i1
  %9 = load i8, ptr @H5_libterm_g, align 1, !range !7
  %10 = trunc nuw i8 %9 to i1
  %11 = select i1 %8, i1 true, i1 %10
  br i1 %11, label %19, label %12, !prof !9

12:                                               ; preds = %3
  %13 = tail call i32 @H5_init_library() #6
  %14 = icmp slt i32 %13, 0
  br i1 %14, label %15, label %._crit_edge, !prof !10

._crit_edge:                                      ; preds = %12
  %.pre = load i8, ptr @H5_libterm_g, align 1, !range !7
  br label %19

15:                                               ; preds = %12
  %16 = load i64, ptr @H5E_FUNC_g, align 8, !tbaa !11
  %17 = load i64, ptr @H5E_CANTINIT_g, align 8, !tbaa !11
  %18 = tail call i32 (ptr, ptr, i32, i64, i64, ptr, ...) @H5E_printf_stack(ptr noundef nonnull @.str, ptr noundef nonnull @__func__.H5Fget_mdc_image_info, i32 noundef 2562, i64 noundef %16, i64 noundef %17, ptr noundef nonnull @.str.1) #6
  br label %.thread22

19:                                               ; preds = %._crit_edge, %3
  %20 = phi i8 [ %.pre, %._crit_edge ], [ %9, %3 ]
  %21 = load i8, ptr @H5F_init_g, align 1, !tbaa !3, !range !7, !noundef !8
  %22 = trunc nuw i8 %21 to i1
  %23 = trunc nuw i8 %20 to i1
  %24 = select i1 %22, i1 true, i1 %23
  br i1 %24, label %32, label %25, !prof !9

25:                                               ; preds = %19
  store i8 1, ptr @H5F_init_g, align 1, !tbaa !3
  %26 = tail call i32 @H5F__init_package() #6
  %27 = icmp slt i32 %26, 0
  br i1 %27, label %28, label %32, !prof !13

28:                                               ; preds = %25
  store i8 0, ptr @H5F_init_g, align 1, !tbaa !3
  %29 = load i64, ptr @H5E_FUNC_g, align 8, !tbaa !11
  %30 = load i64, ptr @H5E_CANTINIT_g, align 8, !tbaa !11
  %31 = tail call i32 (ptr, ptr, i32, i64, i64, ptr, ...) @H5E_printf_stack(ptr noundef nonnull @.str, ptr noundef nonnull @__func__.H5Fget_mdc_image_info, i32 noundef 2562, i64 noundef %29, i64 noundef %30, ptr noundef nonnull @.str.2) #6
  br label %.thread22

32:                                               ; preds = %19, %25
  %33 = call i32 @H5CX_push(ptr noundef nonnull %6) #6
  %34 = icmp slt i32 %33, 0
  br i1 %34, label %35, label %39, !prof !10

35:                                               ; preds = %32
  %36 = load i64, ptr @H5E_FUNC_g, align 8, !tbaa !11
  %37 = load i64, ptr @H5E_CANTSET_g, align 8, !tbaa !11
  %38 = call i32 (ptr, ptr, i32, i64, i64, ptr, ...) @H5E_printf_stack(ptr noundef nonnull @.str, ptr noundef nonnull @__func__.H5Fget_mdc_image_info, i32 noundef 2562, i64 noundef %36, i64 noundef %37, ptr noundef nonnull @.str.3) #6
  br label %.thread22

39:                                               ; preds = %32
  %40 = call i32 @H5E_clear_stack() #6
  %41 = call ptr @H5VL_vol_object_verify(i64 noundef %0, i32 noundef 1) #6
  %42 = icmp eq ptr %41, null
  br i1 %42, label %43, label %47, !prof !14

43:                                               ; preds = %39
  %44 = load i64, ptr @H5E_ARGS_g, align 8, !tbaa !11
  %45 = load i64, ptr @H5E_BADTYPE_g, align 8, !tbaa !11
  %46 = call i32 (ptr, ptr, i32, i64, i64, ptr, ...) @H5E_printf_stack(ptr noundef nonnull @.str, ptr noundef nonnull @__func__.H5Fget_mdc_image_info, i32 noundef 2566, i64 noundef %44, i64 noundef %45, ptr noundef nonnull @.str.101) #6
  br label %.thread28

47:                                               ; preds = %39
  store ptr %1, ptr %5, align 8, !tbaa !18
  %48 = getelementptr inbounds nuw i8, ptr %5, i64 8
  store ptr %2, ptr %48, align 8, !tbaa !18
  store i32 20, ptr %4, align 8, !tbaa !28
  %49 = getelementptr inbounds nuw i8, ptr %4, i64 8
  store ptr %5, ptr %49, align 8, !tbaa !30
  %50 = load i64, ptr @H5P_LST_DATASET_XFER_ID_g, align 8, !tbaa !11
  %51 = call i32 @H5VL_file_optional(ptr noundef nonnull %41, ptr noundef nonnull %4, i64 noundef %50, ptr noundef null) #6
  %52 = icmp slt i32 %51, 0
  br i1 %52, label %53, label %58, !prof !14

53:                                               ; preds = %47
  %54 = load i64, ptr @H5E_FILE_g, align 8, !tbaa !11
  %55 = load i64, ptr @H5E_CANTGET_g, align 8, !tbaa !11
  %56 = call i32 (ptr, ptr, i32, i64, i64, ptr, ...) @H5E_printf_stack(ptr noundef nonnull @.str, ptr noundef nonnull @__func__.H5Fget_mdc_image_info, i32 noundef 2576, i64 noundef %54, i64 noundef %55, ptr noundef nonnull @.str.112) #6
  br label %.thread28

.thread28:                                        ; preds = %53, %43
  %57 = call i32 @H5CX_pop(i1 noundef zeroext true) #6
  br label %.thread22

58:                                               ; preds = %47
  %59 = call i32 @H5CX_pop(i1 noundef zeroext true) #6
  br label %61

.thread22:                                        ; preds = %35, %28, %15, %.thread28
  %60 = call i32 @H5E_dump_api_stack() #6
  br label %61

61:                                               ; preds = %58, %.thread22
  %.0121725 = phi i32 [ -1, %.thread22 ], [ 0, %58 ]
  call void @llvm.lifetime.end.p0(i64 480, ptr nonnull %6) #6
  call void @llvm.lifetime.end.p0(i64 40, ptr nonnull %5) #6
  call void @llvm.lifetime.end.p0(i64 16, ptr nonnull %4) #6
  ret i32 %.0121725
}